; Function Attrs: nounwind uwtable
define internal range(i32 -1, 1) i32 @H5O__cont_delete(ptr noundef %0, ptr noundef %1, ptr noundef readonly captures(none) %2) #0 {
  %4 = load i8, ptr @H5O_init_g, align 1, !tbaa !8, !range !10, !noundef !11
  %5 = trunc nuw i8 %4 to i1
  %6 = load i8, ptr @H5_libterm_g, align 1, !range !10
  %7 = trunc nuw i8 %6 to i1
  %8 = xor i1 %7, true
  %9 = select i1 %5, i1 true, i1 %8
  br i1 %9, label %10, label %19, !prof !12

10:                                               ; preds = %3
  %11 = getelementptr inbounds nuw i8, ptr %2, i64 16
  %12 = load i32, ptr %11, align 8, !tbaa !21
  %13 = tail call i32 @H5O__chunk_delete(ptr noundef %0, ptr noundef %1, i32 noundef %12) #4
  %14 = icmp slt i32 %13, 0
  br i1 %14, label %15, label %19

15:                                               ; preds = %10
  %16 = load i64, ptr @H5E_OHDR_g, align 8, !tbaa !13
  %17 = load i64, ptr @H5E_CANTDELETE_g, align 8, !tbaa !13
  %18 = tail call i32 (ptr, ptr, i32, i64, i64, ptr, ...) @H5E_printf_stack(ptr noundef nonnull @.str.2, ptr noundef nonnull @__func__.H5O__cont_delete, i32 noundef 218, i64 noundef %16, i64 noundef %17, ptr noundef nonnull @.str.5) #4
  br label %19

19:                                               ; preds = %15, %10, %3
  %.0 = phi i32 [ -1, %15 ], [ 0, %10 ], [ 0, %3 ]
  ret i32 %.0
}